; Function Attrs: mustprogress nounwind uwtable
define void @_ZN3nix11RemoteStore16ConnectionHandleD2Ev(ptr noundef nonnull align 8 dereferenceable(33) %0) unnamed_addr #6 align 2 personality ptr @__gxx_personality_v0 {
  %2 = alloca %"class.std::allocator", align 1
  %3 = alloca %"class.std::__cxx11::basic_string", align 8
  %4 = getelementptr inbounds i8, ptr %0, i64 32
  %5 = load i8, ptr %4, align 8
  %6 = and i8 %5, 1
  %.not = icmp eq i8 %6, 0
  br i1 %.not, label %7, label %30

7:                                                ; preds = %1
  %8 = tail call noundef i32 @_ZSt19uncaught_exceptionsv() #34
  %.not2 = icmp eq i32 %8, 0
  br i1 %.not2, label %30, label %9

9:                                                ; preds = %7
  %10 = getelementptr inbounds i8, ptr %0, i64 24
  store i8 1, ptr %10, align 8
  %11 = load i32, ptr @_ZN3nix9verbosityE, align 4
  %12 = icmp sgt i32 %11, 5
  br i1 %12, label %13, label %30

13:                                               ; preds = %9
  %14 = load ptr, ptr @_ZN3nix6loggerE, align 8
  call void @llvm.lifetime.start.p0(i64 1, ptr nonnull %2)
  call void @_ZNSaIcEC1Ev(ptr noundef nonnull align 1 dereferenceable(1) %2) #29, !noalias !21
  invoke void @_ZNSt7__cxx1112basic_stringIcSt11char_traitsIcESaIcEEC2IS3_EEPKcRKS3_(ptr noundef nonnull align 8 dereferenceable(32) %3, ptr noundef nonnull @.str.14, ptr noundef nonnull align 1 dereferenceable(1) %2)
          to label %17 unwind label %15

15:                                               ; preds = %13
  %16 = landingpad { ptr, i32 }
          catch ptr null
  call void @_ZNSaIcED1Ev(ptr noundef nonnull align 1 dereferenceable(1) %2) #29
  br label %.body

17:                                               ; preds = %13
  call void @_ZNSaIcED1Ev(ptr noundef nonnull align 1 dereferenceable(1) %2) #29
  call void @llvm.lifetime.end.p0(i64 1, ptr nonnull %2)
  %18 = load ptr, ptr %3, align 8
  %19 = getelementptr inbounds i8, ptr %3, i64 8
  %20 = load i64, ptr %19, align 8
  %21 = load ptr, ptr %14, align 8
  %22 = getelementptr inbounds i8, ptr %21, i64 48
  %23 = load ptr, ptr %22, align 8
  invoke void %23(ptr noundef nonnull align 8 dereferenceable(8) %14, i32 noundef 6, i64 %20, ptr %18)
          to label %24 unwind label %31

24:                                               ; preds = %17
  %25 = load ptr, ptr %3, align 8
  %26 = getelementptr inbounds i8, ptr %3, i64 16
  %27 = icmp eq ptr %25, %26
  br i1 %27, label %_ZNKSt7__cxx1112basic_stringIcSt11char_traitsIcESaIcEE11_M_is_localEv.exit.thread.i.i, label %_ZNKSt7__cxx1112basic_stringIcSt11char_traitsIcESaIcEE11_M_is_localEv.exit.i.i

_ZNKSt7__cxx1112basic_stringIcSt11char_traitsIcESaIcEE11_M_is_localEv.exit.thread.i.i: ; preds = %24
  %28 = load i64, ptr %19, align 8
  %29 = icmp ult i64 %28, 16
  call void @llvm.assume(i1 %29)
  br label %_ZNSt7__cxx1112basic_stringIcSt11char_traitsIcESaIcEED2Ev.exit

_ZNKSt7__cxx1112basic_stringIcSt11char_traitsIcESaIcEE11_M_is_localEv.exit.i.i: ; preds = %24
  call void @_ZdlPv(ptr noundef %25) #32
  br label %_ZNSt7__cxx1112basic_stringIcSt11char_traitsIcESaIcEED2Ev.exit

_ZNSt7__cxx1112basic_stringIcSt11char_traitsIcESaIcEED2Ev.exit: ; preds = %_ZNKSt7__cxx1112basic_stringIcSt11char_traitsIcESaIcEE11_M_is_localEv.exit.thread.i.i, %_ZNKSt7__cxx1112basic_stringIcSt11char_traitsIcESaIcEE11_M_is_localEv.exit.i.i
  call void @_ZNSaIcED2Ev(ptr noundef nonnull align 1 dereferenceable(1) %3) #29
  br label %30

30:                                               ; preds = %9, %_ZNSt7__cxx1112basic_stringIcSt11char_traitsIcESaIcEED2Ev.exit, %7, %1
  call void @_ZN3nix4PoolINS_11RemoteStore10ConnectionEE6HandleD2Ev(ptr noundef nonnull align 8 dereferenceable(25) %0) #29
  ret void

31:                                               ; preds = %17
  %32 = landingpad { ptr, i32 }
          catch ptr null
  br label %.body

.body:                                            ; preds = %15, %31
  %eh.lpad-body = phi { ptr, i32 } [ %32, %31 ], [ %16, %15 ]
  %33 = extractvalue { ptr, i32 } %eh.lpad-body, 0
  call void @__clang_call_terminate(ptr %33) #33
  unreachable
}